; Function Attrs: mustprogress nounwind uwtable
define dso_local void @_ZN5clang6driver11InputActionC2ERKN4llvm3opt3ArgENS0_5types2IDENS2_9StringRefE(ptr noundef nonnull align 8 dereferenceable(128) %0, ptr noundef nonnull align 8 dereferenceable(88) %1, i32 noundef %2, ptr %3, i64 %4) unnamed_addr #0 align 2 {
  %6 = alloca %"class.std::allocator", align 1
  tail call void @_ZN5clang6driver6ActionC2ENS1_11ActionClassENS0_5types2IDE(ptr noundef nonnull align 8 dereferenceable(88) %0, i32 noundef 0, i32 noundef %2)
  store ptr getelementptr inbounds inrange(-16, 24) (i8, ptr @_ZTVN5clang6driver11InputActionE, i64 16), ptr %0, align 8
  %7 = getelementptr inbounds nuw i8, ptr %0, i64 88
  store ptr %1, ptr %7, align 8
  %8 = getelementptr inbounds nuw i8, ptr %0, i64 96
  call void @llvm.lifetime.start.p0(i64 1, ptr nonnull %6)
  %.not.i = icmp eq ptr %3, null
  br i1 %.not.i, label %9, label %10

9:                                                ; preds = %5
  tail call void @_ZNSt7__cxx1112basic_stringIcSt11char_traitsIcESaIcEEC1Ev(ptr noundef nonnull align 8 dereferenceable(32) %8) #11
  br label %_ZNK4llvm9StringRef3strB5cxx11Ev.exit

10:                                               ; preds = %5
  call void @_ZNSaIcEC1Ev(ptr noundef nonnull align 1 dereferenceable(1) %6) #11, !noalias !4
  call void @_ZNSt7__cxx1112basic_stringIcSt11char_traitsIcESaIcEEC1EPKcmRKS3_(ptr noundef nonnull align 8 dereferenceable(32) %8, ptr noundef nonnull %3, i64 noundef %4, ptr noundef nonnull align 1 dereferenceable(1) %6) #11
  call void @_ZNSaIcED1Ev(ptr noundef nonnull align 1 dereferenceable(1) %6) #11
  br label %_ZNK4llvm9StringRef3strB5cxx11Ev.exit

_ZNK4llvm9StringRef3strB5cxx11Ev.exit:            ; preds = %9, %10
  call void @llvm.lifetime.end.p0(i64 1, ptr nonnull %6)
  ret void
}